target datalayout = "e-m:e-p270:32:32-p271:32:32-p272:64:64-i64:64-i128:128-f80:128-n8:16:32:64-S128"
target triple = "x86_64-pc-linux-gnu"

%struct.H5O_efl_t = type { i64, i64, i64, ptr }
%struct.H5O_efl_entry_t = type { i64, ptr, i64, i64 }

@H5O_init_g = external global i8, align 1
@H5_libterm_g = external global i8, align 1

; Function Attrs: nounwind uwtable
define internal i32 @H5O__efl_reset(ptr noundef %0) #0 {
  %2 = alloca ptr, align 8
  %3 = alloca ptr, align 8
  %4 = alloca i64, align 8
  store ptr %0, ptr %2, align 8, !tbaa !22
  call void @llvm.lifetime.start.p0(i64 8, ptr %3) #8
  %5 = load ptr, ptr %2, align 8, !tbaa !22
  store ptr %5, ptr %3, align 8, !tbaa !18
  call void @llvm.lifetime.start.p0(i64 8, ptr %4) #8
  %6 = load i8, ptr @H5O_init_g, align 1, !tbaa !23, !range !25, !noundef !26
  %7 = trunc i8 %6 to i1
  br i1 %7, label %12, label %8

8:                                                ; preds = %1
  %9 = load i8, ptr @H5_libterm_g, align 1, !tbaa !23, !range !25, !noundef !26
  %10 = trunc i8 %9 to i1
  %11 = xor i1 %10, true
  br label %12

12:                                               ; preds = %8, %1
  %13 = phi i1 [ true, %1 ], [ %11, %8 ]
  %14 = xor i1 %13, true
  %15 = xor i1 %14, true
  %16 = zext i1 %15 to i32
  %17 = sext i32 %16 to i64
  %18 = call i64 @llvm.expect.i64(i64 %17, i64 1)
  %19 = icmp ne i64 %18, 0
  br i1 %19, label %20, label %70

20:                                               ; preds = %12
  %21 = load ptr, ptr %3, align 8, !tbaa !18
  %22 = getelementptr inbounds nuw %struct.H5O_efl_t, ptr %21, i32 0, i32 3
  %23 = load ptr, ptr %22, align 8, !tbaa !33
  %24 = icmp ne ptr %23, null
  br i1 %24, label %25, label %63

25:                                               ; preds = %20
  store i64 0, ptr %4, align 8, !tbaa !14
  br label %26

26:                                               ; preds = %53, %25
  %27 = load i64, ptr %4, align 8, !tbaa !14
  %28 = load ptr, ptr %3, align 8, !tbaa !18
  %29 = getelementptr inbounds nuw %struct.H5O_efl_t, ptr %28, i32 0, i32 2
  %30 = load i64, ptr %29, align 8, !tbaa !31
  %31 = icmp ult i64 %27, %30
  br i1 %31, label %32, label %56

32:                                               ; preds = %26
  %33 = load ptr, ptr %3, align 8, !tbaa !18
  %34 = getelementptr inbounds nuw %struct.H5O_efl_t, ptr %33, i32 0, i32 3
  %35 = load ptr, ptr %34, align 8, !tbaa !33
  %36 = load i64, ptr %4, align 8, !tbaa !14
  %37 = getelementptr inbounds nuw %struct.H5O_efl_entry_t, ptr %35, i64 %36
  %38 = getelementptr inbounds nuw %struct.H5O_efl_entry_t, ptr %37, i32 0, i32 1
  %39 = load ptr, ptr %38, align 8, !tbaa !38
  %40 = call ptr @H5MM_xfree(ptr noundef %39)
  %41 = load ptr, ptr %3, align 8, !tbaa !18
  %42 = getelementptr inbounds nuw %struct.H5O_efl_t, ptr %41, i32 0, i32 3
  %43 = load ptr, ptr %42, align 8, !tbaa !33
  %44 = load i64, ptr %4, align 8, !tbaa !14
  %45 = getelementptr inbounds nuw %struct.H5O_efl_entry_t, ptr %43, i64 %44
  %46 = getelementptr inbounds nuw %struct.H5O_efl_entry_t, ptr %45, i32 0, i32 1
  store ptr %40, ptr %46, align 8, !tbaa !38
  %47 = load ptr, ptr %3, align 8, !tbaa !18
  %48 = getelementptr inbounds nuw %struct.H5O_efl_t, ptr %47, i32 0, i32 3
  %49 = load ptr, ptr %48, align 8, !tbaa !33
  %50 = load i64, ptr %4, align 8, !tbaa !14
  %51 = getelementptr inbounds nuw %struct.H5O_efl_entry_t, ptr %49, i64 %50
  %52 = getelementptr inbounds nuw %struct.H5O_efl_entry_t, ptr %51, i32 0, i32 0
  store i64 0, ptr %52, align 8, !tbaa !34
  br label %53

53:                                               ; preds = %32
  %54 = load i64, ptr %4, align 8, !tbaa !14
  %55 = add i64 %54, 1
  store i64 %55, ptr %4, align 8, !tbaa !14
  br label %26, !llvm.loop !57

56:                                               ; preds = %26
  %57 = load ptr, ptr %3, align 8, !tbaa !18
  %58 = getelementptr inbounds nuw %struct.H5O_efl_t, ptr %57, i32 0, i32 3
  %59 = load ptr, ptr %58, align 8, !tbaa !33
  %60 = call ptr @H5MM_xfree(ptr noundef %59)
  %61 = load ptr, ptr %3, align 8, !tbaa !18
  %62 = getelementptr inbounds nuw %struct.H5O_efl_t, ptr %61, i32 0, i32 3
  store ptr %60, ptr %62, align 8, !tbaa !33
  br label %63

63:                                               ; preds = %56, %20
  %64 = load ptr, ptr %3, align 8, !tbaa !18
  %65 = getelementptr inbounds nuw %struct.H5O_efl_t, ptr %64, i32 0, i32 0
  store i64 -1, ptr %65, align 8, !tbaa !32
  %66 = load ptr, ptr %3, align 8, !tbaa !18
  %67 = getelementptr inbounds nuw %struct.H5O_efl_t, ptr %66, i32 0, i32 1
  store i64 0, ptr %67, align 8, !tbaa !28
  %68 = load ptr, ptr %3, align 8, !tbaa !18
  %69 = getelementptr inbounds nuw %struct.H5O_efl_t, ptr %68, i32 0, i32 2
  store i64 0, ptr %69, align 8, !tbaa !31
  br label %70

70:                                               ; preds = %63, %12
  call void @llvm.lifetime.end.p0(i64 8, ptr %4) #8
  call void @llvm.lifetime.end.p0(i64 8, ptr %3) #8
  ret i32 0
}