; Function Attrs: nounwind uwtable
define internal noundef i32 @H5O__efl_reset(ptr noundef captures(none) %0) #0 {
  %2 = load i8, ptr @H5O_init_g, align 1, !tbaa !8, !range !10, !noundef !11
  %3 = trunc nuw i8 %2 to i1
  %4 = load i8, ptr @H5_libterm_g, align 1, !range !10
  %5 = trunc nuw i8 %4 to i1
  %6 = xor i1 %5, true
  %7 = select i1 %3, i1 true, i1 %6
  br i1 %7, label %8, label %27, !prof !12

8:                                                ; preds = %1
  %9 = getelementptr inbounds nuw i8, ptr %0, i64 24
  %10 = load ptr, ptr %9, align 8, !tbaa !21
  %.not = icmp eq ptr %10, null
  br i1 %.not, label %25, label %.preheader

.preheader:                                       ; preds = %8
  %11 = getelementptr inbounds nuw i8, ptr %0, i64 16
  %12 = load i64, ptr %11, align 8, !tbaa !19
  %.not16 = icmp eq i64 %12, 0
  br i1 %.not16, label %._crit_edge, label %.lr.ph

.lr.ph:                                           ; preds = %.preheader, %.lr.ph
  %13 = phi ptr [ %17, %.lr.ph ], [ %10, %.preheader ]
  %.015 = phi i64 [ %20, %.lr.ph ], [ 0, %.preheader ]
  %14 = getelementptr inbounds nuw %struct.H5O_efl_entry_t, ptr %13, i64 %.015, i32 1
  %15 = load ptr, ptr %14, align 8, !tbaa !26
  %16 = tail call ptr @H5MM_xfree(ptr noundef %15) #11
  %17 = load ptr, ptr %9, align 8, !tbaa !21
  %18 = getelementptr inbounds nuw %struct.H5O_efl_entry_t, ptr %17, i64 %.015, i32 1
  store ptr %16, ptr %18, align 8, !tbaa !26
  %19 = getelementptr inbounds nuw %struct.H5O_efl_entry_t, ptr %17, i64 %.015
  store i64 0, ptr %19, align 8, !tbaa !22
  %20 = add nuw i64 %.015, 1
  %21 = load i64, ptr %11, align 8, !tbaa !19
  %22 = icmp ult i64 %20, %21
  br i1 %22, label %.lr.ph, label %._crit_edge, !llvm.loop !42

._crit_edge:                                      ; preds = %.lr.ph, %.preheader
  %23 = phi ptr [ %10, %.preheader ], [ %17, %.lr.ph ]
  %24 = tail call ptr @H5MM_xfree(ptr noundef nonnull %23) #11
  store ptr %24, ptr %9, align 8, !tbaa !21
  br label %25

25:                                               ; preds = %._crit_edge, %8
  store i64 -1, ptr %0, align 8, !tbaa !20
  %26 = getelementptr inbounds nuw i8, ptr %0, i64 8
  tail call void @llvm.memset.p0.i64(ptr noundef nonnull align 8 dereferenceable(16) %26, i8 0, i64 16, i1 false)
  br label %27

27:                                               ; preds = %25, %1
  ret i32 0
}